# SymbolsHelper-Confirmed: 4:6.1.4 amd64 armel armhf i386 mips64el ppc64 riscv64 s390x
libkmpris.so.6 libkmpris6 #MINVER#
* Build-Depends-Package: plasma-workspace-dev
 _Z47qml_register_types_org_kde_plasma_private_mprisv@Base 4:6.1.4
 _ZGVZN9QMetaType21registerConverterImplI5QListIiE9QIterableI13QMetaSequenceEEEbSt8functionIFbPKvPvEES_S_E10unregister@Base 4:6.1.4
 _ZGVZN9QMetaType23registerMutableViewImplI5QListIiE9QIterableI13QMetaSequenceEEEbSt8functionIFbPvS7_EES_S_E10unregister@Base 4:6.1.4
 _ZN10LoopStatus16staticMetaObjectE@Base 4:6.1.4
 _ZN11Mpris2Model11qt_metacallEN11QMetaObject4CallEiPPv@Base 4:6.1.4
 _ZN11Mpris2Model11qt_metacastEPKc@Base 4:6.1.4
 _ZN11Mpris2Model13onDataChangedERK11QModelIndexS2_RK5QListIiE@Base 4:6.1.4
 _ZN11Mpris2Model13onRowsRemovedERK11QModelIndexii@Base 4:6.1.4
 _ZN11Mpris2Model14onRowsInsertedERK11QModelIndexii@Base 4:6.1.4
 _ZN11Mpris2Model15setCurrentIndexEj@Base 4:6.1.4
 _ZN11Mpris2Model16staticMetaObjectE@Base 4:6.1.4
 _ZN11Mpris2Model19currentIndexChangedEv@Base 4:6.1.4
 _ZN11Mpris2Model20currentPlayerChangedEv@Base 4:6.1.4
 _ZN11Mpris2Model22onRowsAboutToBeRemovedERK11QModelIndexii@Base 4:6.1.4
 _ZN11Mpris2ModelC1EP7QObject@Base 4:6.1.4
 _ZN11Mpris2ModelC2EP7QObject@Base 4:6.1.4
 _ZN11Mpris2ModelD0Ev@Base 4:6.1.4
 _ZN11Mpris2ModelD1Ev@Base 4:6.1.4
 _ZN11Mpris2ModelD2Ev@Base 4:6.1.4
 _ZN11Multiplexer11qt_metacallEN11QMetaObject4CallEiPPv@Base 4:6.1.4
 _ZN11Multiplexer11qt_metacastEPKc@Base 4:6.1.4
 _ZN11Multiplexer11updateIndexEv@Base 4:6.1.4
 _ZN11Multiplexer13onRowsRemovedERK11QModelIndexii@Base 4:6.1.4
 _ZN11Multiplexer14onRowsInsertedERK11QModelIndexii@Base 4:6.1.4
 _ZN11Multiplexer15evaluatePlayersEv@Base 4:6.1.4
 _ZN11Multiplexer16staticMetaObjectE@Base 4:6.1.4
 _ZN11Multiplexer22onRowsAboutToBeRemovedERK11QModelIndexii@Base 4:6.1.4
 _ZN11Multiplexer23onPlaybackStatusChangedEv@Base 4:6.1.4
 _ZN11Multiplexer24activePlayerIndexChangedEi@Base 4:6.1.4
 _ZN11Multiplexer4selfEv@Base 4:6.1.4
 _ZN11MultiplexerC1EP7QObject@Base 4:6.1.4
 _ZN11MultiplexerC2EP7QObject@Base 4:6.1.4
 _ZN11MultiplexerD0Ev@Base 4:6.1.4
 _ZN11MultiplexerD1Ev@Base 4:6.1.4
 _ZN11MultiplexerD2Ev@Base 4:6.1.4
 _ZN13QMetaSequence12MetaSequenceI5QListIiEE5valueE@Base 4:6.1.4
 _ZN13ShuffleStatus16staticMetaObjectE@Base 4:6.1.4
 _ZN14PlaybackStatus16staticMetaObjectE@Base 4:6.1.4
 _ZN15PlayerContainer10setShuffleEN13ShuffleStatus6StatusE@Base 4:6.1.4
 _ZN15PlayerContainer11qt_metacallEN11QMetaObject4CallEiPPv@Base 4:6.1.4
 _ZN15PlayerContainer11qt_metacastEPKc@Base 4:6.1.4
 _ZN15PlayerContainer11setPositionEx@Base 4:6.1.4
 _ZN15PlayerContainer12changeVolumeEdb@Base 4:6.1.4
 _ZN15PlayerContainer12initBindingsEv@Base 4:6.1.4
 _ZN15PlayerContainer13setFullscreenEb@Base 4:6.1.4
 _ZN15PlayerContainer13setLoopStatusEN10LoopStatus6StatusE@Base 4:6.1.4
 _ZN15PlayerContainer13updateFromMapERK4QMapI7QString8QVariantE@Base 4:6.1.4
 _ZN15PlayerContainer14updatePositionEv@Base 4:6.1.4
 _ZN15PlayerContainer16staticMetaObjectE@Base 4:6.1.4
 _ZN15PlayerContainer17setPlaybackStatusEN14PlaybackStatus6StatusE@Base 4:6.1.4
 _ZN15PlayerContainer18initialFetchFailedEPS_@Base 4:6.1.4
 _ZN15PlayerContainer18onGetPropsFinishedEP23QDBusPendingCallWatcher@Base 4:6.1.4
 _ZN15PlayerContainer19onPropertiesChangedERK7QStringRK4QMapIS0_8QVariantERK5QListIS0_E@Base 4:6.1.4
 _ZN15PlayerContainer20initialFetchFinishedEPS_@Base 4:6.1.4
 _ZN15PlayerContainer4NextEv@Base 4:6.1.4
 _ZN15PlayerContainer4PlayEv@Base 4:6.1.4
 _ZN15PlayerContainer4QuitEv@Base 4:6.1.4
 _ZN15PlayerContainer4SeekEx@Base 4:6.1.4
 _ZN15PlayerContainer4StopEv@Base 4:6.1.4
 _ZN15PlayerContainer5PauseEv@Base 4:6.1.4
 _ZN15PlayerContainer5RaiseEv@Base 4:6.1.4
 _ZN15PlayerContainer7OpenUriERK7QString@Base 4:6.1.4
 _ZN15PlayerContainer7refreshEv@Base 4:6.1.4
 _ZN15PlayerContainer7setRateEd@Base 4:6.1.4
 _ZN15PlayerContainer8PreviousEv@Base 4:6.1.4
 _ZN15PlayerContainer8onSeekedEx@Base 4:6.1.4
 _ZN15PlayerContainer9PlayPauseEv@Base 4:6.1.4
 _ZN15PlayerContainer9setVolumeEd@Base 4:6.1.4
 _ZN15PlayerContainerC1ERK7QStringP7QObject@Base 4:6.1.4
 _ZN15PlayerContainerC2ERK7QStringP7QObject@Base 4:6.1.4
 _ZN15PlayerContainerD0Ev@Base 4:6.1.4
 _ZN15PlayerContainerD1Ev@Base 4:6.1.4
 _ZN15PlayerContainerD2Ev@Base 4:6.1.4
 _ZN16MultiplexerModel11qt_metacallEN11QMetaObject4CallEiPPv@Base 4:6.1.4
 _ZN16MultiplexerModel11qt_metacastEPKc@Base 4:6.1.4
 _ZN16MultiplexerModel16staticMetaObjectE@Base 4:6.1.4
 _ZN16MultiplexerModel18updateActivePlayerEv@Base 4:6.1.4
 _ZN16MultiplexerModel4selfEv@Base 4:6.1.4
 _ZN16MultiplexerModelC1EP7QObject@Base 4:6.1.4
 _ZN16MultiplexerModelC2EP7QObject@Base 4:6.1.4
 _ZN16MultiplexerModelD0Ev@Base 4:6.1.4
 _ZN16MultiplexerModelD1Ev@Base 4:6.1.4
 _ZN16MultiplexerModelD2Ev@Base 4:6.1.4
 _ZN23AbstractPlayerContainer11qt_metacallEN11QMetaObject4CallEiPPv@Base 4:6.1.4
 _ZN23AbstractPlayerContainer11qt_metacastEPKc@Base 4:6.1.4
 _ZN23AbstractPlayerContainer11rateChangedEv@Base 4:6.1.4
 _ZN23AbstractPlayerContainer12albumChangedEv@Base 4:6.1.4
 _ZN23AbstractPlayerContainer12trackChangedEv@Base 4:6.1.4
 _ZN23AbstractPlayerContainer13artUrlChangedEv@Base 4:6.1.4
 _ZN23AbstractPlayerContainer13artistChangedEv@Base 4:6.1.4
 _ZN23AbstractPlayerContainer13kdePidChangedEv@Base 4:6.1.4
 _ZN23AbstractPlayerContainer13lengthChangedEv@Base 4:6.1.4
 _ZN23AbstractPlayerContainer13volumeChangedEv@Base 4:6.1.4
 _ZN23AbstractPlayerContainer14canPlayChangedEv@Base 4:6.1.4
 _ZN23AbstractPlayerContainer14canQuitChangedEv@Base 4:6.1.4
 _ZN23AbstractPlayerContainer14canSeekChangedEv@Base 4:6.1.4
 _ZN23AbstractPlayerContainer14canStopChangedEv@Base 4:6.1.4
 _ZN23AbstractPlayerContainer14shuffleChangedEv@Base 4:6.1.4
 _ZN23AbstractPlayerContainer15canPauseChangedEv@Base 4:6.1.4
 _ZN23AbstractPlayerContainer15canRaiseChangedEv@Base 4:6.1.4
 _ZN23AbstractPlayerContainer15identityChangedEv@Base 4:6.1.4
 _ZN23AbstractPlayerContainer15metadataChangedEv@Base 4:6.1.4
 _ZN23AbstractPlayerContainer15positionChangedEv@Base 4:6.1.4
 _ZN23AbstractPlayerContainer16canGoNextChangedEv@Base 4:6.1.4
 _ZN23AbstractPlayerContainer16staticMetaObjectE@Base 4:6.1.4
 _ZN23AbstractPlayerContainer17canControlChangedEv@Base 4:6.1.4
 _ZN23AbstractPlayerContainer17fullscreenChangedEv@Base 4:6.1.4
 _ZN23AbstractPlayerContainer17loopStatusChangedEv@Base 4:6.1.4
 _ZN23AbstractPlayerContainer18maximumRateChangedEv@Base 4:6.1.4
 _ZN23AbstractPlayerContainer18minimumRateChangedEv@Base 4:6.1.4
 _ZN23AbstractPlayerContainer19desktopEntryChangedEv@Base 4:6.1.4
 _ZN23AbstractPlayerContainer19hasTrackListChangedEv@Base 4:6.1.4
 _ZN23AbstractPlayerContainer20canGoPreviousChangedEv@Base 4:6.1.4
 _ZN23AbstractPlayerContainer21playbackStatusChangedEv@Base 4:6.1.4
 _ZN23AbstractPlayerContainer23canSetFullscreenChangedEv@Base 4:6.1.4
 _ZN23AbstractPlayerContainer25supportedMimeTypesChangedEv@Base 4:6.1.4
 _ZN23AbstractPlayerContainer26supportedUriSchemesChangedEv@Base 4:6.1.4
 _ZN23AbstractPlayerContainerC1EP7QObject@Base 4:6.1.4
 _ZN23AbstractPlayerContainerC2EP7QObject@Base 4:6.1.4
 _ZN23AbstractPlayerContainerD0Ev@Base 4:6.1.4
 _ZN23AbstractPlayerContainerD1Ev@Base 4:6.1.4
 _ZN23AbstractPlayerContainerD2Ev@Base 4:6.1.4
 _ZNK11Mpris2Model10metaObjectEv@Base 4:6.1.4
 _ZNK11Mpris2Model12currentIndexEv@Base 4:6.1.4
 _ZNK11Mpris2Model13currentPlayerEv@Base 4:6.1.4
 _ZNK11Mpris2Model20playerForLauncherUrlERK4QUrlj@Base 4:6.1.4
 _ZNK11Mpris2Model9roleNamesEv@Base 4:6.1.4
 _ZNK11Multiplexer10metaObjectEv@Base 4:6.1.4
 _ZNK11Multiplexer12activePlayerEv@Base 4:6.1.4
 _ZNK11Multiplexer17activePlayerIndexEv@Base 4:6.1.4
 _ZNK15PlayerContainer10metaObjectEv@Base 4:6.1.4
 _ZNK16MultiplexerModel10metaObjectEv@Base 4:6.1.4
 _ZNK16MultiplexerModel4dataERK11QModelIndexi@Base 4:6.1.4
 _ZNK16MultiplexerModel8rowCountERK11QModelIndex@Base 4:6.1.4
 _ZNK16MultiplexerModel9roleNamesEv@Base 4:6.1.4
 _ZNK23AbstractPlayerContainer10canControlEv@Base 4:6.1.4
 _ZNK23AbstractPlayerContainer10fullscreenEv@Base 4:6.1.4
 _ZNK23AbstractPlayerContainer10loopStatusEv@Base 4:6.1.4
 _ZNK23AbstractPlayerContainer10metaObjectEv@Base 4:6.1.4
 _ZNK23AbstractPlayerContainer11instancePidEv@Base 4:6.1.4
 _ZNK23AbstractPlayerContainer11maximumRateEv@Base 4:6.1.4
 _ZNK23AbstractPlayerContainer11minimumRateEv@Base 4:6.1.4
 _ZNK23AbstractPlayerContainer12desktopEntryEv@Base 4:6.1.4
 _ZNK23AbstractPlayerContainer12hasTrackListEv@Base 4:6.1.4
 _ZNK23AbstractPlayerContainer13canGoPreviousEv@Base 4:6.1.4
 _ZNK23AbstractPlayerContainer14playbackStatusEv@Base 4:6.1.4
 _ZNK23AbstractPlayerContainer16canSetFullscreenEv@Base 4:6.1.4
 _ZNK23AbstractPlayerContainer18supportedMimeTypesEv@Base 4:6.1.4
 _ZNK23AbstractPlayerContainer19supportedUriSchemesEv@Base 4:6.1.4
 _ZNK23AbstractPlayerContainer4rateEv@Base 4:6.1.4
 _ZNK23AbstractPlayerContainer5albumEv@Base 4:6.1.4
 _ZNK23AbstractPlayerContainer5trackEv@Base 4:6.1.4
 _ZNK23AbstractPlayerContainer6artUrlEv@Base 4:6.1.4
 _ZNK23AbstractPlayerContainer6artistEv@Base 4:6.1.4
 _ZNK23AbstractPlayerContainer6kdePidEv@Base 4:6.1.4
 _ZNK23AbstractPlayerContainer6lengthEv@Base 4:6.1.4
 _ZNK23AbstractPlayerContainer6volumeEv@Base 4:6.1.4
 _ZNK23AbstractPlayerContainer7canPlayEv@Base 4:6.1.4
 _ZNK23AbstractPlayerContainer7canQuitEv@Base 4:6.1.4
 _ZNK23AbstractPlayerContainer7canSeekEv@Base 4:6.1.4
 _ZNK23AbstractPlayerContainer7canStopEv@Base 4:6.1.4
 _ZNK23AbstractPlayerContainer7shuffleEv@Base 4:6.1.4
 _ZNK23AbstractPlayerContainer8canPauseEv@Base 4:6.1.4
 _ZNK23AbstractPlayerContainer8canRaiseEv@Base 4:6.1.4
 _ZNK23AbstractPlayerContainer8iconNameEv@Base 4:6.1.4
 _ZNK23AbstractPlayerContainer8identityEv@Base 4:6.1.4
 _ZNK23AbstractPlayerContainer8positionEv@Base 4:6.1.4
 _ZNK23AbstractPlayerContainer9canGoNextEv@Base 4:6.1.4
 (optional=templinst)_ZNKSt8_Rb_treeI7QStringSt4pairIKS0_8QVariantESt10_Select1stIS4_ESt4lessIS0_ESaIS4_EE4findERS2_@Base 4:6.1.4
 (optional=templinst|arch=amd64)_ZNSt8_Rb_treeI7QStringSt4pairIKS0_8QVariantESt10_Select1stIS4_ESt4lessIS0_ESaIS4_EE16_M_insert_uniqueIS4_EES1_ISt17_Rb_tree_iteratorIS4_EbEOT_@Base 4:6.1.4
 (optional=templinst)_ZNSt8_Rb_treeI7QStringSt4pairIKS0_8QVariantESt10_Select1stIS4_ESt4lessIS0_ESaIS4_EE24_M_get_insert_unique_posERS2_@Base 4:6.1.4
 (optional=templinst|arch=amd64 mips64el riscv64)_ZNSt8_Rb_treeI7QStringSt4pairIKS0_8QVariantESt10_Select1stIS4_ESt4lessIS0_ESaIS4_EE29_M_get_insert_hint_unique_posESt23_Rb_tree_const_iteratorIS4_ERS2_@Base 4:6.1.4
 _ZTI11Mpris2Model@Base 4:6.1.4
 _ZTI11Multiplexer@Base 4:6.1.4
 _ZTI15PlayerContainer@Base 4:6.1.4
 _ZTI16MultiplexerModel@Base 4:6.1.4
 _ZTI23AbstractPlayerContainer@Base 4:6.1.4
 (arch=armel riscv64)_ZTIN9__gnu_cxx7__mutexE@Base 4:6.1.4-3
 (arch=armel riscv64)_ZTISt11_Mutex_baseILN9__gnu_cxx12_Lock_policyE1EE@Base 4:6.1.4-3
 (arch=!armel !riscv64)_ZTISt11_Mutex_baseILN9__gnu_cxx12_Lock_policyE2EE@Base 4:6.1.4-3
 (arch=armel riscv64)_ZTISt16_Sp_counted_baseILN9__gnu_cxx12_Lock_policyE1EE@Base 4:6.1.4-3
 (arch=!armel !riscv64)_ZTISt16_Sp_counted_baseILN9__gnu_cxx12_Lock_policyE2EE@Base 4:6.1.4-3
 (arch=armel armhf)_ZTISt19_Sp_make_shared_tag@Base 4:6.1.4-3
 (arch=armel riscv64)_ZTISt23_Sp_counted_ptr_inplaceI11MultiplexerSaIvELN9__gnu_cxx12_Lock_policyE1EE@Base 4:6.1.4-3
 (arch=!armel !riscv64)_ZTISt23_Sp_counted_ptr_inplaceI11MultiplexerSaIvELN9__gnu_cxx12_Lock_policyE2EE@Base 4:6.1.4-3
 (arch=armel riscv64)_ZTISt23_Sp_counted_ptr_inplaceI16MultiplexerModelSaIvELN9__gnu_cxx12_Lock_policyE1EE@Base 4:6.1.4-3
 (arch=!armel !riscv64)_ZTISt23_Sp_counted_ptr_inplaceI16MultiplexerModelSaIvELN9__gnu_cxx12_Lock_policyE2EE@Base 4:6.1.4-3
 _ZTIZN9QMetaType17registerConverterI5QListIiE9QIterableI13QMetaSequenceEN9QtPrivate33QSequentialIterableConvertFunctorIS2_EEEEbT1_EUlPKvPvE_@Base 4:6.1.4
 _ZTIZN9QMetaType19registerMutableViewI5QListIiE9QIterableI13QMetaSequenceEN9QtPrivate37QSequentialIterableMutableViewFunctorIS2_EEEEbT1_EUlPvSA_E_@Base 4:6.1.4
 _ZTS11Mpris2Model@Base 4:6.1.4
 _ZTS11Multiplexer@Base 4:6.1.4
 _ZTS15PlayerContainer@Base 4:6.1.4
 _ZTS16MultiplexerModel@Base 4:6.1.4
 _ZTS23AbstractPlayerContainer@Base 4:6.1.4
 (arch=armel riscv64)_ZTSN9__gnu_cxx7__mutexE@Base 4:6.1.4-3
 (arch=armel riscv64)_ZTSSt11_Mutex_baseILN9__gnu_cxx12_Lock_policyE1EE@Base 4:6.1.4-3
 (arch=!armel !riscv64)_ZTSSt11_Mutex_baseILN9__gnu_cxx12_Lock_policyE2EE@Base 4:6.1.4-3
 (arch=armel riscv64)_ZTSSt16_Sp_counted_baseILN9__gnu_cxx12_Lock_policyE1EE@Base 4:6.1.4-3
 (arch=!armel !riscv64)_ZTSSt16_Sp_counted_baseILN9__gnu_cxx12_Lock_policyE2EE@Base 4:6.1.4-3
 _ZTSSt19_Sp_make_shared_tag@Base 4:6.1.4
 (arch=armel riscv64)_ZTSSt23_Sp_counted_ptr_inplaceI11MultiplexerSaIvELN9__gnu_cxx12_Lock_policyE1EE@Base 4:6.1.4-3
 (arch=!armel !riscv64)_ZTSSt23_Sp_counted_ptr_inplaceI11MultiplexerSaIvELN9__gnu_cxx12_Lock_policyE2EE@Base 4:6.1.4-3
 (arch=armel riscv64)_ZTSSt23_Sp_counted_ptr_inplaceI16MultiplexerModelSaIvELN9__gnu_cxx12_Lock_policyE1EE@Base 4:6.1.4-3
 (arch=!armel !riscv64)_ZTSSt23_Sp_counted_ptr_inplaceI16MultiplexerModelSaIvELN9__gnu_cxx12_Lock_policyE2EE@Base 4:6.1.4-3
 _ZTSZN9QMetaType17registerConverterI5QListIiE9QIterableI13QMetaSequenceEN9QtPrivate33QSequentialIterableConvertFunctorIS2_EEEEbT1_EUlPKvPvE_@Base 4:6.1.4
 _ZTSZN9QMetaType19registerMutableViewI5QListIiE9QIterableI13QMetaSequenceEN9QtPrivate37QSequentialIterableMutableViewFunctorIS2_EEEEbT1_EUlPvSA_E_@Base 4:6.1.4
 _ZTV11Mpris2Model@Base 4:6.1.4
 _ZTV11Multiplexer@Base 4:6.1.4
 _ZTV15PlayerContainer@Base 4:6.1.4
 _ZTV16MultiplexerModel@Base 4:6.1.4
 _ZTV23AbstractPlayerContainer@Base 4:6.1.4
 (arch=armel riscv64)_ZTVSt23_Sp_counted_ptr_inplaceI11MultiplexerSaIvELN9__gnu_cxx12_Lock_policyE1EE@Base 4:6.1.4-3
 (arch=!armel !riscv64)_ZTVSt23_Sp_counted_ptr_inplaceI11MultiplexerSaIvELN9__gnu_cxx12_Lock_policyE2EE@Base 4:6.1.4-3
 (arch=armel riscv64)_ZTVSt23_Sp_counted_ptr_inplaceI16MultiplexerModelSaIvELN9__gnu_cxx12_Lock_policyE1EE@Base 4:6.1.4-3
 (arch=!armel !riscv64)_ZTVSt23_Sp_counted_ptr_inplaceI16MultiplexerModelSaIvELN9__gnu_cxx12_Lock_policyE2EE@Base 4:6.1.4-3
 (optional=templinst)_ZZN9QMetaType21registerConverterImplI5QListIiE9QIterableI13QMetaSequenceEEEbSt8functionIFbPKvPvEES_S_E10unregister@Base 4:6.1.4
 (optional=templinst)_ZZN9QMetaType23registerMutableViewImplI5QListIiE9QIterableI13QMetaSequenceEEEbSt8functionIFbPvS7_EES_S_E10unregister@Base 4:6.1.4
 _ZZNSt19_Sp_make_shared_tag5_S_tiEvE5__tag@Base 4:6.1.4
