# SymbolsHelper-Confirmed: 4:6.1.4 amd64
libkfontinstui.so.6 libkfontinstui6 #MINVER#
* Build-Depends-Package: plasma-workspace-dev
 _ZN3KFI9CFcEngine10readConfigER7KConfig@Base 6.1.4
 _ZN3KFI9CFcEngine11addFontFileERK7QString@Base 6.1.4
 _ZN3KFI9CFcEngine11drawPreviewERK7QStringjiRK6QColorS6_i@Base 6.1.4
 _ZN3KFI9CFcEngine11writeConfigER7KConfig@Base 6.1.4
 _ZN3KFI9CFcEngine12theirFcDirtyE@Base 6.1.4
 _ZN3KFI9CFcEngine14getPunctuationEv@Base 6.1.4
 _ZN3KFI9CFcEngine18constScalableSizesE@Base 6.1.4
 _ZN3KFI9CFcEngine19getLowercaseLettersEv@Base 6.1.4
 _ZN3KFI9CFcEngine19getUppercaseLettersEv@Base 6.1.4
 _ZN3KFI9CFcEngine21constDefaultAlphaSizeE@Base 6.1.4
 _ZN3KFI9CFcEngine23getDefaultPreviewStringEv@Base 6.1.4
 _ZN3KFI9CFcEngine3Xft10freeColorsEv@Base 6.1.4
 _ZN3KFI9CFcEngine3Xft4initERK6QColorS4_ii@Base 6.1.4
 _ZN3KFI9CFcEngine3XftC1Ev@Base 6.1.4
 _ZN3KFI9CFcEngine3XftC2Ev@Base 6.1.4
 _ZN3KFI9CFcEngine3XftD1Ev@Base 6.1.4
 _ZN3KFI9CFcEngine3XftD2Ev@Base 6.1.4
 _ZN3KFI9CFcEngine3xftEv@Base 6.1.4
 _ZN3KFI9CFcEngine4drawERK7QStringjiRK6QColorS6_iS3_@Base 6.1.4
 _ZN3KFI9CFcEngine4drawERK7QStringjiRK6QColorS6_iibRK5QListINS0_6TRangeEEPS7_INS0_5TCharEE@Base 6.1.4
 _ZN3KFI9CFcEngine5parseERK7QStringji@Base 6.1.4
 _ZN3KFI9CFcEngine6reinitEv@Base 6.1.4
 _ZN3KFI9CFcEngine7getFontEi@Base 6.1.4
 _ZN3KFI9CFcEngine8drawNameEiRii@Base 6.1.4
 _ZN3KFI9CFcEngine8getQFontERK7QStringji@Base 6.1.4
 _ZN3KFI9CFcEngine8getSizesEv@Base 6.1.4
 _ZN3KFI9CFcEngine9isCorrectEP8_XftFontb@Base 6.1.4
 _ZN3KFI9CFcEngine9queryFontEv@Base 6.1.4
 _ZN3KFI9CFcEngineC1Eb@Base 6.1.4
 _ZN3KFI9CFcEngineC2Eb@Base 6.1.4
 _ZN3KFI9CFcEngineD0Ev@Base 6.1.4
 _ZN3KFI9CFcEngineD1Ev@Base 6.1.4
 _ZN3KFI9CFcEngineD2Ev@Base 6.1.4
 _ZNK3KFI9CFcEngine3Xft10drawChar32EP8_XftFontjRiS4_iiiR5QRect@Base 6.1.4
 _ZNK3KFI9CFcEngine3Xft10drawStringEP8_XftFontRK7QStringiRii@Base 6.1.4
 _ZNK3KFI9CFcEngine3Xft10drawStringERK7QStringiRii@Base 6.1.4
 _ZNK3KFI9CFcEngine3Xft12drawAllCharsEP8_XftFontiRiS4_iibiP5QRect@Base 6.1.4
 _ZNK3KFI9CFcEngine3Xft13drawAllGlyphsEP8_XftFontiRiS4_iibiP5QRect@Base 6.1.4
 _ZNK3KFI9CFcEngine3Xft16drawChar32CentreEP8_XftFontjii@Base 6.1.4
 _ZNK3KFI9CFcEngine3Xft7toImageEii@Base 6.1.4
 _ZNK3KFI9CFcEngine3Xft9drawGlyphEP8_XftFontjRiS4_iiibR5QRect@Base 6.1.4
 _ZTIN3KFI9CFcEngineE@Base 6.1.4
 _ZTSN3KFI9CFcEngineE@Base 6.1.4
 _ZTVN3KFI9CFcEngineE@Base 6.1.4
