# SymbolsHelper-Confirmed: 4:6.1.0 amd64
_ZGVZN9QMetaType21registerConverterImplI5QListI15QDBusObjectPathE9QIterableI13QMetaSequenceEEEbSt8functionIFbPKvPvEES_S_E10unregister@Base 4:6.1.0
 _ZGVZN9QMetaType23registerMutableViewImplI5QListI15QDBusObjectPathE9QIterableI13QMetaSequenceEEEbSt8functionIFbPvS8_EES_S_E10unregister@Base 4:6.1.0
 _ZN13QMetaSequence12MetaSequenceI5QListI15QDBusObjectPathEE5valueE@Base 4:6.1.0
 _ZN14DefaultService17legacyBrowserExecEv@Base 4:6.1.0
 _ZN14DefaultService7browserEv@Base 4:6.1.0
 _ZN14SessionBackend11qt_metacallEN11QMetaObject4CallEiPPv@Base 4:6.1.0
 _ZN14SessionBackend11qt_metacastEPKc@Base 4:6.1.0
 _ZN14SessionBackend12stateChangedEv@Base 4:6.1.0
 _ZN14SessionBackend14aboutToSuspendEv@Base 4:6.1.0
 _ZN14SessionBackend16canRebootChangedEv@Base 4:6.1.0
 _ZN14SessionBackend16staticMetaObjectE@Base 4:6.1.0
 _ZN14SessionBackend17canSuspendChangedEv@Base 4:6.1.0
 _ZN14SessionBackend18canShutdownChangedEv@Base 4:6.1.0
 _ZN14SessionBackend19canHibernateChangedEv@Base 4:6.1.0
 _ZN14SessionBackend19resumingFromSuspendEv@Base 4:6.1.0
 _ZN14SessionBackend23canHybridSuspendChangedEv@Base 4:6.1.0
 _ZN14SessionBackend30canSuspendThenHibernateChangedEv@Base 4:6.1.0
 _ZN14SessionBackend4selfEv@Base 4:6.1.0
 _ZN14SessionBackendC1Ev@Base 4:6.1.0
 _ZN14SessionBackendC2Ev@Base 4:6.1.0
 _ZN15KDisplayManager10numReserveEv@Base 4:6.1.0
 _ZN15KDisplayManager11bootOptionsER5QListI7QStringERiS4_@Base 4:6.1.0
 _ZN15KDisplayManager11canShutdownEv@Base 4:6.1.0
 _ZN15KDisplayManager12isSwitchableEv@Base 4:6.1.0
 _ZN15KDisplayManager12lockSwitchVTEi@Base 4:6.1.0
 _ZN15KDisplayManager12startReserveEv@Base 4:6.1.0
 _ZN15KDisplayManager13localSessionsER5QListI7SessEntE@Base 4:6.1.0
 _ZN15KDisplayManager15GDMAuthenticateEv@Base 4:6.1.0
 _ZN15KDisplayManager4execEPKc@Base 4:6.1.0
 _ZN15KDisplayManager4execEPKcR10QByteArray@Base 4:6.1.0
 _ZN15KDisplayManager8sess2StrERK7SessEnt@Base 4:6.1.0
 _ZN15KDisplayManager8shutdownEN10KWorkSpace12ShutdownTypeENS0_12ShutdownModeERK7QString@Base 4:6.1.0
 _ZN15KDisplayManager8switchVTEi@Base 4:6.1.0
 _ZN15KDisplayManager9sess2Str2ERK7SessEntR7QStringS4_@Base 4:6.1.0
 _ZN15KDisplayManagerC1Ev@Base 4:6.1.0
 _ZN15KDisplayManagerC2Ev@Base 4:6.1.0
 _ZN15KDisplayManagerD1Ev@Base 4:6.1.0
 _ZN15KDisplayManagerD2Ev@Base 4:6.1.0
 _ZN16DefaultWallpaper23defaultWallpaperPackageEv@Base 4:6.1.0
 _ZN17SessionManagement10switchUserEv@Base 4:6.1.0
 _ZN17SessionManagement11qt_metacallEN11QMetaObject4CallEiPPv@Base 4:6.1.0
 _ZN17SessionManagement11qt_metacastEPKc@Base 4:6.1.0
 _ZN17SessionManagement11saveSessionEv@Base 4:6.1.0
 _ZN17SessionManagement12stateChangedEv@Base 4:6.1.0
 _ZN17SessionManagement13hybridSuspendEv@Base 4:6.1.0
 _ZN17SessionManagement13requestLogoutENS_16ConfirmationModeE@Base 4:6.1.0
 _ZN17SessionManagement13requestRebootENS_16ConfirmationModeE@Base 4:6.1.0
 _ZN17SessionManagement14aboutToSuspendEv@Base 4:6.1.0
 _ZN17SessionManagement14canLockChangedEv@Base 4:6.1.0
 _ZN17SessionManagement15requestShutdownENS_16ConfirmationModeE@Base 4:6.1.0
 _ZN17SessionManagement16canLogoutChangedEv@Base 4:6.1.0
 _ZN17SessionManagement16canRebootChangedEv@Base 4:6.1.0
 _ZN17SessionManagement16staticMetaObjectE@Base 4:6.1.0
 _ZN17SessionManagement17canSuspendChangedEv@Base 4:6.1.0
 _ZN17SessionManagement18canShutdownChangedEv@Base 4:6.1.0
 _ZN17SessionManagement19canHibernateChangedEv@Base 4:6.1.0
 _ZN17SessionManagement19requestLogoutPromptEv@Base 4:6.1.0
 _ZN17SessionManagement19resumingFromSuspendEv@Base 4:6.1.0
 _ZN17SessionManagement20canSwitchUserChangedEv@Base 4:6.1.0
 _ZN17SessionManagement20suspendThenHibernateEv@Base 4:6.1.0
 _ZN17SessionManagement21canSaveSessionChangedEv@Base 4:6.1.0
 _ZN17SessionManagement23canHybridSuspendChangedEv@Base 4:6.1.0
 _ZN17SessionManagement30canSuspendThenHibernateChangedEv@Base 4:6.1.0
 _ZN17SessionManagement4lockEv@Base 4:6.1.0
 _ZN17SessionManagement7suspendEv@Base 4:6.1.0
 _ZN17SessionManagement9hibernateEv@Base 4:6.1.0
 _ZN17SessionManagementC1EP7QObject@Base 4:6.1.0
 _ZN17SessionManagementC2EP7QObject@Base 4:6.1.0
 _ZN18OutputOrderWatcher11qt_metacallEN11QMetaObject4CallEiPPv@Base 4:6.1.0
 _ZN18OutputOrderWatcher11qt_metacastEPKc@Base 4:6.1.0
 _ZN18OutputOrderWatcher11useFallbackEb@Base 4:6.1.0
 _ZN18OutputOrderWatcher16staticMetaObjectE@Base 4:6.1.0
 _ZN18OutputOrderWatcher18outputOrderChangedERK5QListI7QStringE@Base 4:6.1.0
 _ZN18OutputOrderWatcher7refreshEv@Base 4:6.1.0
 _ZN18OutputOrderWatcher8instanceEP7QObject@Base 4:6.1.0
 _ZN18OutputOrderWatcherC1EP7QObject@Base 4:6.1.0
 _ZN18OutputOrderWatcherC2EP7QObject@Base 4:6.1.0
 _ZN26AutostartScriptDesktopFile17autostartLocationEv@Base 4:6.1.0
 _ZN26AutostartScriptDesktopFile17isAutostartScriptERK12KDesktopFile@Base 4:6.1.0
 _ZN26AutostartScriptDesktopFileC1ERK7QStringS2_S2_@Base 4:6.1.0
 _ZN26AutostartScriptDesktopFileC2ERK7QStringS2_S2_@Base 4:6.1.0
 (optional=templinst)_ZNK12KConfigGroup9readEntryIbEET_PKcRKS1_@Base 4:6.1.0
 _ZNK14SessionBackend10metaObjectEv@Base 4:6.1.0
 _ZNK14SessionBackend13canSwitchUserEv@Base 4:6.1.0
 _ZNK14SessionBackend13confirmLogoutEv@Base 4:6.1.0
 _ZNK17SessionManagement10canSuspendEv@Base 4:6.1.0
 _ZNK17SessionManagement10metaObjectEv@Base 4:6.1.0
 _ZNK17SessionManagement11canShutdownEv@Base 4:6.1.0
 _ZNK17SessionManagement12canHibernateEv@Base 4:6.1.0
 _ZNK17SessionManagement13canSwitchUserEv@Base 4:6.1.0
 _ZNK17SessionManagement14canSaveSessionEv@Base 4:6.1.0
 _ZNK17SessionManagement16canHybridSuspendEv@Base 4:6.1.0
 _ZNK17SessionManagement23canSuspendThenHibernateEv@Base 4:6.1.0
 _ZNK17SessionManagement5stateEv@Base 4:6.1.0
 _ZNK17SessionManagement7canLockEv@Base 4:6.1.0
 _ZNK17SessionManagement9canLogoutEv@Base 4:6.1.0
 _ZNK17SessionManagement9canRebootEv@Base 4:6.1.0
 _ZNK18OutputOrderWatcher10metaObjectEv@Base 4:6.1.0
 _ZNK18OutputOrderWatcher11outputOrderEv@Base 4:6.1.0
 _ZTI14SessionBackend@Base 4:6.1.0
 _ZTI17SessionManagement@Base 4:6.1.0
 _ZTI18OutputOrderWatcher@Base 4:6.1.0
 _ZTI26AutostartScriptDesktopFile@Base 4:6.1.0
 _ZTIZN9QMetaType17registerConverterI5QListI15QDBusObjectPathE9QIterableI13QMetaSequenceEN9QtPrivate33QSequentialIterableConvertFunctorIS3_EEEEbT1_EUlPKvPvE_@Base 4:6.1.0
 _ZTIZN9QMetaType19registerMutableViewI5QListI15QDBusObjectPathE9QIterableI13QMetaSequenceEN9QtPrivate37QSequentialIterableMutableViewFunctorIS3_EEEEbT1_EUlPvSB_E_@Base 4:6.1.0
 _ZTS14SessionBackend@Base 4:6.1.0
 _ZTS17SessionManagement@Base 4:6.1.0
 _ZTS18OutputOrderWatcher@Base 4:6.1.0
 _ZTS26AutostartScriptDesktopFile@Base 4:6.1.0
 _ZTSZN9QMetaType17registerConverterI5QListI15QDBusObjectPathE9QIterableI13QMetaSequenceEN9QtPrivate33QSequentialIterableConvertFunctorIS3_EEEEbT1_EUlPKvPvE_@Base 4:6.1.0
 _ZTSZN9QMetaType19registerMutableViewI5QListI15QDBusObjectPathE9QIterableI13QMetaSequenceEN9QtPrivate37QSequentialIterableMutableViewFunctorIS3_EEEEbT1_EUlPvSB_E_@Base 4:6.1.0
 _ZTV14SessionBackend@Base 4:6.1.0
 _ZTV17SessionManagement@Base 4:6.1.0
 _ZTV18OutputOrderWatcher@Base 4:6.1.0
 _ZTV26AutostartScriptDesktopFile@Base 4:6.1.0
 (optional=templinst)_ZZN9QMetaType21registerConverterImplI5QListI15QDBusObjectPathE9QIterableI13QMetaSequenceEEEbSt8functionIFbPKvPvEES_S_E10unregister@Base 4:6.1.0
 (optional=templinst)_ZZN9QMetaType23registerMutableViewImplI5QListI15QDBusObjectPathE9QIterableI13QMetaSequenceEEEbSt8functionIFbPvS8_EES_S_E10unregister@Base 4:6.1.0
 kde_output_order_v1_interface@Base 4:6.1.0
libkworkspace6.so.6 libkworkspace6-6 #MINVER#
* Build-Depends-Package: plasma-workspace-dev
 _ZGVZN9QMetaType21registerConverterImplI5QListI15QDBusObjectPathE9QIterableI13QMetaSequenceEEEbSt8functionIFbPKvPvEES_S_E10unregister@Base 4:6.1.0
 _ZGVZN9QMetaType23registerMutableViewImplI5QListI15QDBusObjectPathE9QIterableI13QMetaSequenceEEEbSt8functionIFbPvS8_EES_S_E10unregister@Base 4:6.1.0
 _ZN13QMetaSequence12MetaSequenceI5QListI15QDBusObjectPathEE5valueE@Base 4:6.1.0
 _ZN14DefaultService17legacyBrowserExecEv@Base 4:6.1.0
 _ZN14DefaultService7browserEv@Base 4:6.1.0
 _ZN14SessionBackend11qt_metacallEN11QMetaObject4CallEiPPv@Base 4:6.1.0
 _ZN14SessionBackend11qt_metacastEPKc@Base 4:6.1.0
 _ZN14SessionBackend12stateChangedEv@Base 4:6.1.0
 _ZN14SessionBackend14aboutToSuspendEv@Base 4:6.1.0
 _ZN14SessionBackend16canRebootChangedEv@Base 4:6.1.0
 _ZN14SessionBackend16staticMetaObjectE@Base 4:6.1.0
 _ZN14SessionBackend17canSuspendChangedEv@Base 4:6.1.0
 _ZN14SessionBackend18canShutdownChangedEv@Base 4:6.1.0
 _ZN14SessionBackend19canHibernateChangedEv@Base 4:6.1.0
 _ZN14SessionBackend19resumingFromSuspendEv@Base 4:6.1.0
 _ZN14SessionBackend23canHybridSuspendChangedEv@Base 4:6.1.0
 _ZN14SessionBackend30canSuspendThenHibernateChangedEv@Base 4:6.1.0
 _ZN14SessionBackend4selfEv@Base 4:6.1.0
 _ZN14SessionBackendC1Ev@Base 4:6.1.0
 _ZN14SessionBackendC2Ev@Base 4:6.1.0
 _ZN15KDisplayManager10numReserveEv@Base 4:6.1.0
 _ZN15KDisplayManager11bootOptionsER5QListI7QStringERiS4_@Base 4:6.1.0
 _ZN15KDisplayManager11canShutdownEv@Base 4:6.1.0
 _ZN15KDisplayManager12isSwitchableEv@Base 4:6.1.0
 _ZN15KDisplayManager12lockSwitchVTEi@Base 4:6.1.0
 _ZN15KDisplayManager12startReserveEv@Base 4:6.1.0
 _ZN15KDisplayManager13localSessionsER5QListI7SessEntE@Base 4:6.1.0
 _ZN15KDisplayManager15GDMAuthenticateEv@Base 4:6.1.0
 _ZN15KDisplayManager4execEPKc@Base 4:6.1.0
 _ZN15KDisplayManager4execEPKcR10QByteArray@Base 4:6.1.0
 _ZN15KDisplayManager8sess2StrERK7SessEnt@Base 4:6.1.0
 _ZN15KDisplayManager8shutdownEN10KWorkSpace12ShutdownTypeENS0_12ShutdownModeERK7QString@Base 4:6.1.0
 _ZN15KDisplayManager8switchVTEi@Base 4:6.1.0
 _ZN15KDisplayManager9sess2Str2ERK7SessEntR7QStringS4_@Base 4:6.1.0
 _ZN15KDisplayManagerC1Ev@Base 4:6.1.0
 _ZN15KDisplayManagerC2Ev@Base 4:6.1.0
 _ZN15KDisplayManagerD1Ev@Base 4:6.1.0
 _ZN15KDisplayManagerD2Ev@Base 4:6.1.0
 _ZN16DefaultWallpaper23defaultWallpaperPackageEv@Base 4:6.1.0
 _ZN17SessionManagement10switchUserEv@Base 4:6.1.0
 _ZN17SessionManagement11qt_metacallEN11QMetaObject4CallEiPPv@Base 4:6.1.0
 _ZN17SessionManagement11qt_metacastEPKc@Base 4:6.1.0
 _ZN17SessionManagement11saveSessionEv@Base 4:6.1.0
 _ZN17SessionManagement12stateChangedEv@Base 4:6.1.0
 _ZN17SessionManagement13hybridSuspendEv@Base 4:6.1.0
 _ZN17SessionManagement13requestLogoutENS_16ConfirmationModeE@Base 4:6.1.0
 _ZN17SessionManagement13requestRebootENS_16ConfirmationModeE@Base 4:6.1.0
 _ZN17SessionManagement14aboutToSuspendEv@Base 4:6.1.0
 _ZN17SessionManagement14canLockChangedEv@Base 4:6.1.0
 _ZN17SessionManagement15requestShutdownENS_16ConfirmationModeE@Base 4:6.1.0
 _ZN17SessionManagement16canLogoutChangedEv@Base 4:6.1.0
 _ZN17SessionManagement16canRebootChangedEv@Base 4:6.1.0
 _ZN17SessionManagement16staticMetaObjectE@Base 4:6.1.0
 _ZN17SessionManagement17canSuspendChangedEv@Base 4:6.1.0
 _ZN17SessionManagement18canShutdownChangedEv@Base 4:6.1.0
 _ZN17SessionManagement19canHibernateChangedEv@Base 4:6.1.0
 _ZN17SessionManagement19requestLogoutPromptEv@Base 4:6.1.0
 _ZN17SessionManagement19resumingFromSuspendEv@Base 4:6.1.0
 _ZN17SessionManagement20canSwitchUserChangedEv@Base 4:6.1.0
 _ZN17SessionManagement20suspendThenHibernateEv@Base 4:6.1.0
 _ZN17SessionManagement21canSaveSessionChangedEv@Base 4:6.1.0
 _ZN17SessionManagement23canHybridSuspendChangedEv@Base 4:6.1.0
 _ZN17SessionManagement30canSuspendThenHibernateChangedEv@Base 4:6.1.0
 _ZN17SessionManagement4lockEv@Base 4:6.1.0
 _ZN17SessionManagement7suspendEv@Base 4:6.1.0
 _ZN17SessionManagement9hibernateEv@Base 4:6.1.0
 _ZN17SessionManagementC1EP7QObject@Base 4:6.1.0
 _ZN17SessionManagementC2EP7QObject@Base 4:6.1.0
 _ZN18OutputOrderWatcher11qt_metacallEN11QMetaObject4CallEiPPv@Base 4:6.1.0
 _ZN18OutputOrderWatcher11qt_metacastEPKc@Base 4:6.1.0
 _ZN18OutputOrderWatcher11useFallbackEb@Base 4:6.1.0
 _ZN18OutputOrderWatcher16staticMetaObjectE@Base 4:6.1.0
 _ZN18OutputOrderWatcher18outputOrderChangedERK5QListI7QStringE@Base 4:6.1.0
 _ZN18OutputOrderWatcher7refreshEv@Base 4:6.1.0
 _ZN18OutputOrderWatcher8instanceEP7QObject@Base 4:6.1.0
 _ZN18OutputOrderWatcherC1EP7QObject@Base 4:6.1.0
 _ZN18OutputOrderWatcherC2EP7QObject@Base 4:6.1.0
 _ZN26AutostartScriptDesktopFile17autostartLocationEv@Base 4:6.1.0
 _ZN26AutostartScriptDesktopFile17isAutostartScriptERK12KDesktopFile@Base 4:6.1.0
 _ZN26AutostartScriptDesktopFileC1ERK7QStringS2_S2_@Base 4:6.1.0
 _ZN26AutostartScriptDesktopFileC2ERK7QStringS2_S2_@Base 4:6.1.0
 (optional=templinst)_ZNK12KConfigGroup9readEntryIbEET_PKcRKS1_@Base 4:6.1.0
 _ZNK14SessionBackend10metaObjectEv@Base 4:6.1.0
 _ZNK14SessionBackend13canSwitchUserEv@Base 4:6.1.0
 _ZNK14SessionBackend13confirmLogoutEv@Base 4:6.1.0
 _ZNK17SessionManagement10canSuspendEv@Base 4:6.1.0
 _ZNK17SessionManagement10metaObjectEv@Base 4:6.1.0
 _ZNK17SessionManagement11canShutdownEv@Base 4:6.1.0
 _ZNK17SessionManagement12canHibernateEv@Base 4:6.1.0
 _ZNK17SessionManagement13canSwitchUserEv@Base 4:6.1.0
 _ZNK17SessionManagement14canSaveSessionEv@Base 4:6.1.0
 _ZNK17SessionManagement16canHybridSuspendEv@Base 4:6.1.0
 _ZNK17SessionManagement23canSuspendThenHibernateEv@Base 4:6.1.0
 _ZNK17SessionManagement5stateEv@Base 4:6.1.0
 _ZNK17SessionManagement7canLockEv@Base 4:6.1.0
 _ZNK17SessionManagement9canLogoutEv@Base 4:6.1.0
 _ZNK17SessionManagement9canRebootEv@Base 4:6.1.0
 _ZNK18OutputOrderWatcher10metaObjectEv@Base 4:6.1.0
 _ZNK18OutputOrderWatcher11outputOrderEv@Base 4:6.1.0
 _ZTI14SessionBackend@Base 4:6.1.0
 _ZTI17SessionManagement@Base 4:6.1.0
 _ZTI18OutputOrderWatcher@Base 4:6.1.0
 _ZTI26AutostartScriptDesktopFile@Base 4:6.1.0
 _ZTIZN9QMetaType17registerConverterI5QListI15QDBusObjectPathE9QIterableI13QMetaSequenceEN9QtPrivate33QSequentialIterableConvertFunctorIS3_EEEEbT1_EUlPKvPvE_@Base 4:6.1.0
 _ZTIZN9QMetaType19registerMutableViewI5QListI15QDBusObjectPathE9QIterableI13QMetaSequenceEN9QtPrivate37QSequentialIterableMutableViewFunctorIS3_EEEEbT1_EUlPvSB_E_@Base 4:6.1.0
 _ZTS14SessionBackend@Base 4:6.1.0
 _ZTS17SessionManagement@Base 4:6.1.0
 _ZTS18OutputOrderWatcher@Base 4:6.1.0
 _ZTS26AutostartScriptDesktopFile@Base 4:6.1.0
 _ZTSZN9QMetaType17registerConverterI5QListI15QDBusObjectPathE9QIterableI13QMetaSequenceEN9QtPrivate33QSequentialIterableConvertFunctorIS3_EEEEbT1_EUlPKvPvE_@Base 4:6.1.0
 _ZTSZN9QMetaType19registerMutableViewI5QListI15QDBusObjectPathE9QIterableI13QMetaSequenceEN9QtPrivate37QSequentialIterableMutableViewFunctorIS3_EEEEbT1_EUlPvSB_E_@Base 4:6.1.0
 _ZTV14SessionBackend@Base 4:6.1.0
 _ZTV17SessionManagement@Base 4:6.1.0
 _ZTV18OutputOrderWatcher@Base 4:6.1.0
 _ZTV26AutostartScriptDesktopFile@Base 4:6.1.0
 (optional=templinst)_ZZN9QMetaType21registerConverterImplI5QListI15QDBusObjectPathE9QIterableI13QMetaSequenceEEEbSt8functionIFbPKvPvEES_S_E10unregister@Base 4:6.1.0
 (optional=templinst)_ZZN9QMetaType23registerMutableViewImplI5QListI15QDBusObjectPathE9QIterableI13QMetaSequenceEEEbSt8functionIFbPvS8_EES_S_E10unregister@Base 4:6.1.0
 kde_output_order_v1_interface@Base 4:6.1.0
