# SymbolsHelper-Confirmed: 4:6.1.5 arm64 armel armhf i386 loong64 mips64el ppc64 ppc64el riscv64 s390x
libkfontinst.so.6 libkfontinst6 #MINVER#
* Build-Depends-Package: plasma-workspace-dev
 _ZN3KFI14WritingSystems8instanceEv@Base 4:6.1.4
 _ZN3KFI14WritingSystemsC1Ev@Base 4:6.1.4
 _ZN3KFI14WritingSystemsC2Ev@Base 4:6.1.4
 _ZN3KFI2FC10createNameEP10_FcPattern@Base 4:6.1.4
 _ZN3KFI2FC10createNameERK7QStringiii@Base 4:6.1.4
 _ZN3KFI2FC10createNameERK7QStringj@Base 4:6.1.4
 _ZN3KFI2FC10getDetailsEP10_FcPatternR7QStringRjRiS4_@Base 4:6.1.4
 _ZN3KFI2FC10spacingStrEi@Base 4:6.1.4
 _ZN3KFI2FC10strToSlantERK7QString@Base 4:6.1.4
 _ZN3KFI2FC10strToWidthERK7QStringRS1_@Base 4:6.1.4
 _ZN3KFI2FC11getFcStringEP10_FcPatternPKci@Base 4:6.1.4
 _ZN3KFI2FC11strToWeightERK7QStringRS1_@Base 4:6.1.4
 _ZN3KFI2FC13styleValToStrEj@Base 4:6.1.4
 _ZN3KFI2FC14bitmapsEnabledEv@Base 4:6.1.4
 _ZN3KFI2FC14createStyleValERK7QString@Base 4:6.1.4
 _ZN3KFI2FC15createStyleNameEiii@Base 4:6.1.4
 _ZN3KFI2FC15createStyleNameEj@Base 4:6.1.4
 _ZN3KFI2FC15styleValFromStrERK7QString@Base 4:6.1.4
 _ZN3KFI2FC17decomposeStyleValEjRiS1_S1_@Base 4:6.1.4
 _ZN3KFI2FC5slantEi@Base 4:6.1.4
 _ZN3KFI2FC5widthEi@Base 4:6.1.4
 _ZN3KFI2FC6decodeERK4QUrl@Base 4:6.1.4
 _ZN3KFI2FC6encodeERK7QStringjS3_i@Base 4:6.1.4
 _ZN3KFI2FC6weightEi@Base 4:6.1.4
 _ZN3KFI2FC7getFileERK4QUrl@Base 4:6.1.4
 _ZN3KFI2FC7getNameERK7QString@Base 4:6.1.4
 _ZN3KFI2FC7spacingEi@Base 4:6.1.4
 _ZN3KFI2FC8getFcIntEP10_FcPatternPKcii@Base 4:6.1.4
 _ZN3KFI2FC8getIndexERK4QUrl@Base 4:6.1.4
 _ZN3KFI2FC8slantStrEib@Base 4:6.1.4
 _ZN3KFI2FC8widthStrEib@Base 4:6.1.4
 _ZN3KFI2FC9weightStrEib@Base 4:6.1.4
 _ZN3KFI4FileC1ERK11QDomElementb@Base 4:6.1.4
 _ZN3KFI4FileC2ERK11QDomElementb@Base 4:6.1.4
 _ZN3KFI4Misc10encodeTextERK7QString@Base 4:6.1.4
 _ZN3KFI4Misc10expandHomeE7QString@Base 4:6.1.4
 _ZN3KFI4Misc10fileSyntaxERK7QString@Base 4:6.1.4
 _ZN3KFI4Misc10modifyNameERK7QString@Base 4:6.1.4
 _ZN3KFI4Misc12contractHomeE7QString@Base 4:6.1.4
 _ZN3KFI4Misc12getTimeStampERK7QString@Base 4:6.1.4
 _ZN3KFI4Misc12setFilePermsERK10QByteArray@Base 4:6.1.4
 _ZN3KFI4Misc14getFontFileMapERK4QSetI7QStringE@Base 4:6.1.4
 _ZN3KFI4Misc14getIntQueryValERK4QUrlPKci@Base 4:6.1.4
 _ZN3KFI4Misc18getAssociatedFilesERK7QStringR5QListIS1_Eb@Base 4:6.1.4
 _ZN3KFI4Misc3appERK7QStringPKc@Base 4:6.1.4
 _ZN3KFI4Misc5checkERK7QStringbb@Base 4:6.1.4
 _ZN3KFI4Misc5doCmdERK7QStringS3_S3_S3_@Base 4:6.1.4
 _ZN3KFI4Misc5qHashERKNS0_5TFontE@Base 4:6.1.4
 _ZN3KFI4Misc6getDirERK7QString@Base 4:6.1.4
 _ZN3KFI4Misc7getFileERK7QString@Base 4:6.1.4
 _ZN3KFI4Misc8checkExtERK7QStringS3_@Base 4:6.1.4
 _ZN3KFI4Misc8isBitmapERK7QString@Base 4:6.1.4
 _ZN3KFI4Misc9changeExtERK7QStringS3_@Base 4:6.1.4
 _ZN3KFI4Misc9createDirERK7QString@Base 4:6.1.4
 _ZN3KFI4Misc9dirSyntaxERK7QString@Base 4:6.1.4
 _ZN3KFI4Misc9getFolderERK7QStringS3_R5QListIS1_E@Base 4:6.1.4
 _ZN3KFI4Misc9isMetricsERK7QString@Base 4:6.1.4
 _ZN3KFI4Misc9prettyUrlERK4QUrl@Base 4:6.1.4
 _ZN3KFI4Misc9printableERK7QString@Base 4:6.1.4
 _ZN3KFI5StyleC1ERK11QDomElementb@Base 4:6.1.4
 _ZN3KFI5StyleC2ERK11QDomElementb@Base 4:6.1.4
 _ZN3KFI6FamilyC1ERK11QDomElementb@Base 4:6.1.4
 _ZN3KFI6FamilyC2ERK11QDomElementb@Base 4:6.1.4
 _ZNK3KFI14WritingSystems3getEP10_FcPattern@Base 4:6.1.4
 _ZNK3KFI14WritingSystems3getERK5QListI7QStringE@Base 4:6.1.4
 _ZNK3KFI14WritingSystems8getLangsEy@Base 4:6.1.4
 _ZNK3KFI4File5toXmlEb@Base 4:6.1.4
 _ZNK3KFI5Style5toXmlEbRK7QString@Base 4:6.1.4
 _ZNK3KFI6Family5toXmlEbR11QTextStream@Base 4:6.1.4
 (optional=templinst|arch=!armel !armhf)_ZNSt8_Rb_treeI7QStringSt4pairIKS0_S0_ESt10_Select1stIS3_ESt4lessIS0_ESaIS3_EE16_M_insert_uniqueIS3_EES1_ISt17_Rb_tree_iteratorIS3_EbEOT_@Base 4:6.1.4
 (optional=templinst)_ZNSt8_Rb_treeI7QStringSt4pairIKS0_yESt10_Select1stIS3_ESt4lessIS0_ESaIS3_EE16_M_insert_uniqueIS3_EES1_ISt17_Rb_tree_iteratorIS3_EbEOT_@Base 4:6.1.4
 _ZlsR13QDBusArgumentRKN3KFI4FileE@Base 4:6.1.4
 _ZlsR13QDBusArgumentRKN3KFI5StyleE@Base 4:6.1.4
 _ZlsR13QDBusArgumentRKN3KFI6FamilyE@Base 4:6.1.4
 _ZlsR13QDBusArgumentRKN3KFI8FamiliesE@Base 4:6.1.4
 _ZrsRK13QDBusArgumentRN3KFI4FileE@Base 4:6.1.4
 _ZrsRK13QDBusArgumentRN3KFI5StyleE@Base 4:6.1.4
 _ZrsRK13QDBusArgumentRN3KFI6FamilyE@Base 4:6.1.4
 _ZrsRK13QDBusArgumentRN3KFI8FamiliesE@Base 4:6.1.4
